target datalayout = "e-m:e-p270:32:32-p271:32:32-p272:64:64-i64:64-i128:128-f80:128-n8:16:32:64-S128"
target triple = "x86_64-pc-linux-gnu"

%struct.LPCContext = type { i32, i32, i32, ptr, ptr, ptr, ptr, [2 x %struct.LLSModel] }
%struct.LLSModel = type { [36 x [36 x double]], [32 x [32 x double]], [32 x double], i32, ptr, ptr, [8 x i8] }

; Function Attrs: cold nounwind optsize uwtable
define i32 @ff_lpc_init(ptr noundef %0, i32 noundef %1, i32 noundef %2, i32 noundef %3) #7 {
  %5 = alloca i32, align 4
  %6 = alloca ptr, align 8
  %7 = alloca i32, align 4
  %8 = alloca i32, align 4
  %9 = alloca i32, align 4
  store ptr %0, ptr %6, align 8, !tbaa !4
  store i32 %1, ptr %7, align 4, !tbaa !11
  store i32 %2, ptr %8, align 4, !tbaa !11
  store i32 %3, ptr %9, align 4, !tbaa !11
  %10 = load i32, ptr %7, align 4, !tbaa !11
  %11 = load ptr, ptr %6, align 8, !tbaa !4
  %12 = getelementptr inbounds nuw %struct.LPCContext, ptr %11, i32 0, i32 0
  store i32 %10, ptr %12, align 16, !tbaa !17
  %13 = load i32, ptr %8, align 4, !tbaa !11
  %14 = load ptr, ptr %6, align 8, !tbaa !4
  %15 = getelementptr inbounds nuw %struct.LPCContext, ptr %14, i32 0, i32 1
  store i32 %13, ptr %15, align 4, !tbaa !32
  %16 = load i32, ptr %9, align 4, !tbaa !11
  %17 = load ptr, ptr %6, align 8, !tbaa !4
  %18 = getelementptr inbounds nuw %struct.LPCContext, ptr %17, i32 0, i32 2
  store i32 %16, ptr %18, align 8, !tbaa !33
  %19 = load i32, ptr %7, align 4, !tbaa !11
  %20 = add nsw i32 %19, 2
  %21 = load i32, ptr %8, align 4, !tbaa !11
  %22 = add nsw i32 %21, 4
  %23 = sub nsw i32 %22, 1
  %24 = and i32 %23, -4
  %25 = add nsw i32 %20, %24
  %26 = sext i32 %25 to i64
  %27 = mul i64 %26, 8
  %28 = call noalias ptr @av_mallocz(i64 noundef %27)
  %29 = load ptr, ptr %6, align 8, !tbaa !4
  %30 = getelementptr inbounds nuw %struct.LPCContext, ptr %29, i32 0, i32 3
  store ptr %28, ptr %30, align 16, !tbaa !49
  %31 = load ptr, ptr %6, align 8, !tbaa !4
  %32 = getelementptr inbounds nuw %struct.LPCContext, ptr %31, i32 0, i32 3
  %33 = load ptr, ptr %32, align 16, !tbaa !49
  %34 = icmp ne ptr %33, null
  br i1 %34, label %36, label %35

35:                                               ; preds = %4
  store i32 -12, ptr %5, align 4
  br label %52

36:                                               ; preds = %4
  %37 = load ptr, ptr %6, align 8, !tbaa !4
  %38 = getelementptr inbounds nuw %struct.LPCContext, ptr %37, i32 0, i32 3
  %39 = load ptr, ptr %38, align 16, !tbaa !49
  %40 = load i32, ptr %8, align 4, !tbaa !11
  %41 = add nsw i32 %40, 4
  %42 = sub nsw i32 %41, 1
  %43 = and i32 %42, -4
  %44 = sext i32 %43 to i64
  %45 = getelementptr inbounds double, ptr %39, i64 %44
  %46 = load ptr, ptr %6, align 8, !tbaa !4
  %47 = getelementptr inbounds nuw %struct.LPCContext, ptr %46, i32 0, i32 4
  store ptr %45, ptr %47, align 8, !tbaa !18
  %48 = load ptr, ptr %6, align 8, !tbaa !4
  %49 = getelementptr inbounds nuw %struct.LPCContext, ptr %48, i32 0, i32 5
  store ptr @lpc_apply_welch_window_c, ptr %49, align 16, !tbaa !15
  %50 = load ptr, ptr %6, align 8, !tbaa !4
  %51 = getelementptr inbounds nuw %struct.LPCContext, ptr %50, i32 0, i32 6
  store ptr @lpc_compute_autocorr_c, ptr %51, align 8, !tbaa !19
  store i32 0, ptr %5, align 4
  br label %52

52:                                               ; preds = %36, %35
  %53 = load i32, ptr %5, align 4
  ret i32 %53
}