; Function Attrs: cold nounwind optsize uwtable
define range(i32 -12, 1) i32 @ff_lpc_init(ptr noundef writeonly captures(none) initializes((0, 12), (16, 24)) %0, i32 noundef %1, i32 noundef %2, i32 noundef %3) local_unnamed_addr #6 {
  store i32 %1, ptr %0, align 16, !tbaa !11
  %5 = getelementptr inbounds nuw i8, ptr %0, i64 4
  store i32 %2, ptr %5, align 4, !tbaa !23
  %6 = getelementptr inbounds nuw i8, ptr %0, i64 8
  store i32 %3, ptr %6, align 8, !tbaa !24
  %7 = add nsw i32 %1, 2
  %8 = add nsw i32 %2, 3
  %9 = and i32 %8, -4
  %10 = add nsw i32 %7, %9
  %11 = sext i32 %10 to i64
  %12 = shl nsw i64 %11, 3
  %13 = tail call noalias ptr @av_mallocz(i64 noundef %12) #10
  %14 = getelementptr inbounds nuw i8, ptr %0, i64 16
  store ptr %13, ptr %14, align 16, !tbaa !47
  %.not = icmp eq ptr %13, null
  br i1 %.not, label %21, label %15

15:                                               ; preds = %4
  %16 = sext i32 %9 to i64
  %17 = getelementptr inbounds double, ptr %13, i64 %16
  %18 = getelementptr inbounds nuw i8, ptr %0, i64 24
  store ptr %17, ptr %18, align 8, !tbaa !12
  %19 = getelementptr inbounds nuw i8, ptr %0, i64 32
  store ptr @lpc_apply_welch_window_c, ptr %19, align 16, !tbaa !4
  %20 = getelementptr inbounds nuw i8, ptr %0, i64 40
  store ptr @lpc_compute_autocorr_c, ptr %20, align 8, !tbaa !13
  br label %21

21:                                               ; preds = %4, %15
  %.0 = phi i32 [ 0, %15 ], [ -12, %4 ]
  ret i32 %.0
}